; Function Attrs: mustprogress uwtable
define hidden noundef nonnull align 8 dereferenceable(112) ptr @_ZN12old_intervalaSERKS_(ptr noundef nonnull returned align 8 dereferenceable(112) initializes((8, 12)) %0, ptr noundef nonnull align 8 dereferenceable(112) %1) local_unnamed_addr #3 align 2 {
  %3 = getelementptr inbounds nuw i8, ptr %1, i64 8
  %4 = getelementptr inbounds nuw i8, ptr %0, i64 8
  %5 = load i32, ptr %3, align 8, !tbaa !3
  store i32 %5, ptr %4, align 8, !tbaa !3
  %6 = getelementptr inbounds nuw i8, ptr %0, i64 16
  %7 = getelementptr inbounds nuw i8, ptr %1, i64 16
  %8 = load ptr, ptr @_ZN8rational13g_mpq_managerE, align 8, !tbaa !14
  %9 = getelementptr inbounds nuw i8, ptr %1, i64 20
  %10 = load i8, ptr %9, align 4
  %11 = and i8 %10, 1
  %12 = icmp eq i8 %11, 0
  br i1 %12, label %13, label %18

13:                                               ; preds = %2
  %14 = load i32, ptr %7, align 8, !tbaa !16
  store i32 %14, ptr %6, align 8, !tbaa !16
  %15 = getelementptr inbounds nuw i8, ptr %0, i64 20
  %16 = load i8, ptr %15, align 4
  %17 = and i8 %16, -2
  store i8 %17, ptr %15, align 4
  br label %_ZN11mpq_managerILb1EE3setER3mpzRKS1_.exit.i.i.i

18:                                               ; preds = %2
  tail call void @_ZN11mpz_managerILb1EE7big_setER3mpzRKS1_(ptr noundef nonnull align 8 dereferenceable(728) %8, ptr noundef nonnull align 8 dereferenceable(32) %6, ptr noundef nonnull align 8 dereferenceable(32) %7)
  br label %_ZN11mpq_managerILb1EE3setER3mpzRKS1_.exit.i.i.i

_ZN11mpq_managerILb1EE3setER3mpzRKS1_.exit.i.i.i: ; preds = %18, %13
  %19 = getelementptr inbounds nuw i8, ptr %0, i64 32
  %20 = getelementptr inbounds nuw i8, ptr %1, i64 32
  %21 = getelementptr inbounds nuw i8, ptr %1, i64 36
  %22 = load i8, ptr %21, align 4
  %23 = and i8 %22, 1
  %24 = icmp eq i8 %23, 0
  br i1 %24, label %25, label %30

25:                                               ; preds = %_ZN11mpq_managerILb1EE3setER3mpzRKS1_.exit.i.i.i
  %26 = load i32, ptr %20, align 8, !tbaa !16
  store i32 %26, ptr %19, align 8, !tbaa !16
  %27 = getelementptr inbounds nuw i8, ptr %0, i64 36
  %28 = load i8, ptr %27, align 4
  %29 = and i8 %28, -2
  store i8 %29, ptr %27, align 4
  br label %_ZN11ext_numeralaSERKS_.exit

30:                                               ; preds = %_ZN11mpq_managerILb1EE3setER3mpzRKS1_.exit.i.i.i
  tail call void @_ZN11mpz_managerILb1EE7big_setER3mpzRKS1_(ptr noundef nonnull align 8 dereferenceable(728) %8, ptr noundef nonnull align 8 dereferenceable(16) %19, ptr noundef nonnull align 8 dereferenceable(16) %20)
  br label %_ZN11ext_numeralaSERKS_.exit

_ZN11ext_numeralaSERKS_.exit:                     ; preds = %25, %30
  %31 = getelementptr inbounds nuw i8, ptr %1, i64 48
  %32 = getelementptr inbounds nuw i8, ptr %0, i64 48
  %33 = load i32, ptr %31, align 8, !tbaa !3
  store i32 %33, ptr %32, align 8, !tbaa !3
  %34 = getelementptr inbounds nuw i8, ptr %0, i64 56
  %35 = getelementptr inbounds nuw i8, ptr %1, i64 56
  %36 = load ptr, ptr @_ZN8rational13g_mpq_managerE, align 8, !tbaa !14
  %37 = getelementptr inbounds nuw i8, ptr %1, i64 60
  %38 = load i8, ptr %37, align 4
  %39 = and i8 %38, 1
  %40 = icmp eq i8 %39, 0
  br i1 %40, label %41, label %46

41:                                               ; preds = %_ZN11ext_numeralaSERKS_.exit
  %42 = load i32, ptr %35, align 8, !tbaa !16
  store i32 %42, ptr %34, align 8, !tbaa !16
  %43 = getelementptr inbounds nuw i8, ptr %0, i64 60
  %44 = load i8, ptr %43, align 4
  %45 = and i8 %44, -2
  store i8 %45, ptr %43, align 4
  br label %_ZN11mpq_managerILb1EE3setER3mpzRKS1_.exit.i.i.i7

46:                                               ; preds = %_ZN11ext_numeralaSERKS_.exit
  tail call void @_ZN11mpz_managerILb1EE7big_setER3mpzRKS1_(ptr noundef nonnull align 8 dereferenceable(728) %36, ptr noundef nonnull align 8 dereferenceable(32) %34, ptr noundef nonnull align 8 dereferenceable(32) %35)
  br label %_ZN11mpq_managerILb1EE3setER3mpzRKS1_.exit.i.i.i7

_ZN11mpq_managerILb1EE3setER3mpzRKS1_.exit.i.i.i7: ; preds = %46, %41
  %47 = getelementptr inbounds nuw i8, ptr %0, i64 72
  %48 = getelementptr inbounds nuw i8, ptr %1, i64 72
  %49 = getelementptr inbounds nuw i8, ptr %1, i64 76
  %50 = load i8, ptr %49, align 4
  %51 = and i8 %50, 1
  %52 = icmp eq i8 %51, 0
  br i1 %52, label %53, label %58

53:                                               ; preds = %_ZN11mpq_managerILb1EE3setER3mpzRKS1_.exit.i.i.i7
  %54 = load i32, ptr %48, align 8, !tbaa !16
  store i32 %54, ptr %47, align 8, !tbaa !16
  %55 = getelementptr inbounds nuw i8, ptr %0, i64 76
  %56 = load i8, ptr %55, align 4
  %57 = and i8 %56, -2
  store i8 %57, ptr %55, align 4
  br label %_ZN11ext_numeralaSERKS_.exit8

58:                                               ; preds = %_ZN11mpq_managerILb1EE3setER3mpzRKS1_.exit.i.i.i7
  tail call void @_ZN11mpz_managerILb1EE7big_setER3mpzRKS1_(ptr noundef nonnull align 8 dereferenceable(728) %36, ptr noundef nonnull align 8 dereferenceable(16) %47, ptr noundef nonnull align 8 dereferenceable(16) %48)
  br label %_ZN11ext_numeralaSERKS_.exit8

_ZN11ext_numeralaSERKS_.exit8:                    ; preds = %53, %58
  %59 = getelementptr inbounds nuw i8, ptr %1, i64 88
  %60 = load i8, ptr %59, align 8, !tbaa !32, !range !39, !noundef !40
  %61 = getelementptr inbounds nuw i8, ptr %0, i64 88
  store i8 %60, ptr %61, align 8, !tbaa !32
  %62 = getelementptr inbounds nuw i8, ptr %1, i64 89
  %63 = load i8, ptr %62, align 1, !tbaa !36, !range !39, !noundef !40
  %64 = getelementptr inbounds nuw i8, ptr %0, i64 89
  store i8 %63, ptr %64, align 1, !tbaa !36
  %65 = getelementptr inbounds nuw i8, ptr %1, i64 96
  %66 = load ptr, ptr %65, align 8, !tbaa !37
  %67 = getelementptr inbounds nuw i8, ptr %0, i64 96
  store ptr %66, ptr %67, align 8, !tbaa !37
  %68 = getelementptr inbounds nuw i8, ptr %1, i64 104
  %69 = load ptr, ptr %68, align 8, !tbaa !38
  %70 = getelementptr inbounds nuw i8, ptr %0, i64 104
  store ptr %69, ptr %70, align 8, !tbaa !38
  ret ptr %0
}